; Function Attrs: nofree norecurse nosync nounwind memory(argmem: readwrite) uwtable
define internal void @SDL_Convert71To21(ptr noundef writeonly captures(none) %0, ptr noundef readonly captures(none) %1, i32 noundef %2) #5 {
  %.not27 = icmp eq i32 %2, 0
  br i1 %.not27, label %._crit_edge, label %.lr.ph

.lr.ph:                                           ; preds = %3, %.lr.ph
  %.030 = phi ptr [ %34, %.lr.ph ], [ %0, %3 ]
  %.02529 = phi ptr [ %33, %.lr.ph ], [ %1, %3 ]
  %.02628 = phi i32 [ %32, %.lr.ph ], [ %2, %3 ]
  %4 = getelementptr inbounds nuw i8, ptr %.02529, i64 8
  %5 = load float, ptr %4, align 4
  %6 = getelementptr inbounds nuw i8, ptr %.02529, i64 16
  %7 = load float, ptr %6, align 4
  %8 = getelementptr inbounds nuw i8, ptr %.02529, i64 20
  %9 = load float, ptr %8, align 4
  %10 = getelementptr inbounds nuw i8, ptr %.02529, i64 24
  %11 = load float, ptr %10, align 4
  %12 = getelementptr inbounds nuw i8, ptr %.02529, i64 28
  %13 = load float, ptr %12, align 4
  %14 = load float, ptr %.02529, align 4
  %15 = fmul float %5, 0x3FC49BA5E0000000
  %16 = tail call float @llvm.fmuladd.f32(float %14, float 0x3FCD0E5600000000, float %15)
  %17 = tail call float @llvm.fmuladd.f32(float %7, float 0x3FC8D4FE00000000, float %16)
  %18 = tail call float @llvm.fmuladd.f32(float %9, float 0x3FBE76C8C0000000, float %17)
  %19 = tail call float @llvm.fmuladd.f32(float %11, float 0x3FCA9FBE80000000, float %18)
  %20 = tail call float @llvm.fmuladd.f32(float %13, float 0x3FB78D4FE0000000, float %19)
  store float %20, ptr %.030, align 4
  %21 = getelementptr inbounds nuw i8, ptr %.02529, i64 4
  %22 = load float, ptr %21, align 4
  %23 = tail call float @llvm.fmuladd.f32(float %22, float 0x3FCD0E5600000000, float %15)
  %24 = tail call float @llvm.fmuladd.f32(float %7, float 0x3FBE76C8C0000000, float %23)
  %25 = tail call float @llvm.fmuladd.f32(float %9, float 0x3FC8D4FE00000000, float %24)
  %26 = tail call float @llvm.fmuladd.f32(float %11, float 0x3FB78D4FE0000000, float %25)
  %27 = tail call float @llvm.fmuladd.f32(float %13, float 0x3FCA9FBE80000000, float %26)
  %28 = getelementptr inbounds nuw i8, ptr %.030, i64 4
  store float %27, ptr %28, align 4
  %29 = getelementptr inbounds nuw i8, ptr %.02529, i64 12
  %30 = load float, ptr %29, align 4
  %31 = getelementptr inbounds nuw i8, ptr %.030, i64 8
  store float %30, ptr %31, align 4
  %32 = add nsw i32 %.02628, -1
  %33 = getelementptr inbounds nuw i8, ptr %.02529, i64 32
  %34 = getelementptr inbounds nuw i8, ptr %.030, i64 12
  %.not = icmp eq i32 %32, 0
  br i1 %.not, label %._crit_edge, label %.lr.ph, !llvm.loop !101

._crit_edge:                                      ; preds = %.lr.ph, %3
  ret void
}